ccopy_reg
_reconstructor
p0
(ctweepy.models
User
p1
c__builtin__
object
p2
Ntp3
Rp4
(dp5
S'follow_request_sent'
p6
I00
sS'profile_use_background_image'
p7
I01
sS'profile_sidebar_fill_color'
p8
VCB3C25
p9
sS'suspended'
p10
I00
sS'id'
p11
I262288777
sS'verified'
p12
I00
sS'profile_location'
p13
NsS'profile_image_url_https'
p14
Vhttps://pbs.twimg.com/profile_images/518425737317990400/7QEprKJs_normal.jpeg
p15
sS'_json'
p16
(dp17
Vfollow_request_sent
p18
I00
sVprofile_use_background_image
p19
I01
sVprofile_text_color
p20
VD9CDBD
p21
sVdefault_profile_image
p22
I00
sVsuspended
p23
I00
sVid
p24
I262288777
sVprofile_background_image_url_https
p25
Vhttps://pbs.twimg.com/profile_background_images/378800000176738300/fsqGe533.jpeg
p26
sVverified
p27
I00
sVprofile_location
p28
NsVprofile_image_url_https
p29
g15
sVprofile_sidebar_fill_color
p30
g9
sVentities
p31
(dp32
Vurl
p33
(dp34
Vurls
p35
(lp36
(dp37
g33
Vhttp://t.co/hMjNjIAYqu
p38
sVindices
p39
(lp40
I0
aI22
asVexpanded_url
p41
Vhttp://about.arcolife.in
p42
sVdisplay_url
p43
Vabout.arcolife.in
p44
sassVdescription
p45
(dp46
g35
(lp47
sssVfollowers_count
p48
I222
sVprofile_sidebar_border_color
p49
V000000
p50
sVid_str
p51
V262288777
p52
sVprofile_background_color
p53
V000503
p54
sVneeds_phone_verification
p55
I00
sVlisted_count
p56
I9
sVstatus
p57
(dp58
Vlang
p59
Ven
p60
sVfavorited
p61
I00
sg31
(dp62
Vsymbols
p63
(lp64
sVuser_mentions
p65
(lp66
sVhashtags
p67
(lp68
(dp69
g39
(lp70
I31
aI40
asVtext
p71
VPKdebate
p72
sasg35
(lp73
ssVcontributors
p74
NsVtruncated
p75
I00
sg71
VThappa dikhao.. Dikhao thappa? #PKdebate
p76
sVcreated_at
p77
VMon Dec 29 20:40:13 +0000 2014
p78
sVretweeted
p79
I00
sVin_reply_to_status_id_str
p80
NsVcoordinates
p81
NsVin_reply_to_user_id_str
p82
NsVsource
p83
V<a href="http://twitter.com/download/android" rel="nofollow">Twitter for Android</a>
p84
sVin_reply_to_status_id
p85
NsVin_reply_to_screen_name
p86
Nsg51
V549666220681596928
p87
sVplace
p88
NsVretweet_count
p89
I0
sVgeo
p90
Nsg24
I549666220681596928
sVfavorite_count
p91
I0
sVin_reply_to_user_id
p92
NssVis_translation_enabled
p93
I00
sVutc_offset
p94
I19800
sVstatuses_count
p95
I3203
sg45
V\u0928\u092e\u0938\u094d\u0924\u0947\u0964 I'm on a quest for an answer to nature's existence, wishing to be an intergalactic hitchhiker | associate SE @RedHatSoftware | \u0935\u0928\u094d\u0926\u0947 \u092e\u093e\u0924\u0930\u092e\u0964
p96
sVfriends_count
p97
I530
sVlocation
p98
VIndia
p99
sVprofile_link_color
p100
V56086B
p101
sVprofile_image_url
p102
Vhttp://pbs.twimg.com/profile_images/518425737317990400/7QEprKJs_normal.jpeg
p103
sVfollowing
p104
I00
sVgeo_enabled
p105
I00
sVprofile_banner_url
p106
Vhttps://pbs.twimg.com/profile_banners/262288777/1414087467
p107
sVprofile_background_image_url
p108
Vhttp://pbs.twimg.com/profile_background_images/378800000176738300/fsqGe533.jpeg
p109
sVname
p110
VArchit \u0964 \u0905\u0930\u094d\u091a\u093f\u0924
p111
sg59
Ven
p112
sVprofile_background_tile
p113
I01
sVfavourites_count
p114
I320
sVscreen_name
p115
Varcolife
p116
sVnotifications
p117
I00
sg33
Vhttp://t.co/hMjNjIAYqu
p118
sg77
VMon Mar 07 19:20:33 +0000 2011
p119
sVcontributors_enabled
p120
I00
sVtime_zone
p121
VNew Delhi
p122
sVprotected
p123
I00
sVdefault_profile
p124
I00
sVis_translator
p125
I00
ssS'contributors_enabled'
p126
I00
sS'entities'
p127
g32
sS'followers_count'
p128
I222
sS'profile_sidebar_border_color'
p129
g50
sS'id_str'
p130
g52
sS'default_profile_image'
p131
I00
sS'needs_phone_verification'
p132
I00
sS'listed_count'
p133
I9
sS'status'
p134
g0
(ctweepy.models
Status
p135
g2
Ntp136
Rp137
(dp138
S'favorited'
p139
I00
sS'contributors'
p140
NsS'truncated'
p141
I00
sS'text'
p142
g76
sS'source_url'
p143
Vhttp://twitter.com/download/android
p144
sS'in_reply_to_status_id'
p145
NsS'geo'
p146
Nsg11
I549666220681596928
sS'favorite_count'
p147
I0
sS'lang'
p148
g60
sg127
g62
sS'created_at'
p149
cdatetime
datetime
p150
(S'\x07\xde\x0c\x1d\x14(\r\x00\x00\x00'
p151
tp152
Rp153
sg16
g58
sS'coordinates'
p154
NsS'in_reply_to_user_id_str'
p155
NsS'source'
p156
VTwitter for Android
p157
sS'in_reply_to_status_id_str'
p158
NsS'in_reply_to_screen_name'
p159
Nsg130
g87
sS'retweeted'
p160
I00
sS'place'
p161
NsS'retweet_count'
p162
I0
sS'in_reply_to_user_id'
p163
NsbsS'is_translation_enabled'
p164
I00
sS'utc_offset'
p165
I19800
sS'statuses_count'
p166
I3203
sS'description'
p167
g96
sS'friends_count'
p168
I530
sS'location'
p169
g99
sS'profile_link_color'
p170
g101
sS'profile_image_url'
p171
g103
sS'notifications'
p172
I00
sS'geo_enabled'
p173
I00
sS'profile_background_color'
p174
g54
sS'profile_banner_url'
p175
g107
sS'profile_background_image_url'
p176
g109
sS'name'
p177
g111
sg148
g112
sS'following'
p178
I00
sS'profile_background_tile'
p179
I01
sS'favourites_count'
p180
I320
sS'screen_name'
p181
g116
sS'url'
p182
g118
sS'profile_text_color'
p183
g21
sg149
g150
(S'\x07\xdb\x03\x07\x13\x14!\x00\x00\x00'
p184
tp185
Rp186
sS'profile_background_image_url_https'
p187
g26
sS'time_zone'
p188
g122
sS'protected'
p189
I00
sS'default_profile'
p190
I00
sS'is_translator'
p191
I00
sb.